target datalayout = "e-m:e-p270:32:32-p271:32:32-p272:64:64-i64:64-i128:128-f80:128-n8:16:32:64-S128"
target triple = "x86_64-pc-linux-gnu"

@testctx = internal global ptr null, align 8
@.str.18 = private unnamed_addr constant [33 x i8] c"../openssl/test/evp_extra_test.c\00", align 1
@.str.112 = private unnamed_addr constant [2 x i8] c"0\00", align 1
@testpropq = internal global ptr null, align 8
@.str.247 = private unnamed_addr constant [4 x i8] c"SM2\00", align 1
@.str.256 = private unnamed_addr constant [4 x i8] c"sm3\00", align 1
@.str.275 = private unnamed_addr constant [179 x i8] c"-----BEGIN PUBLIC KEY-----\0AMFkwEwYHKoZIzj0CAQYIKoEcz1UBgi0DQgAEp1KLWq1ZE2jmoAnnBJE1LBGxVr18\0AYvvqECWCpXfAQ9qUJ+UmthnUPf0iM3SaXKHe6PlLIDyNlWMWb9RUh/yU3g==\0A-----END PUBLIC KEY-----\0A\00", align 1
@.str.276 = private unnamed_addr constant [15 x i8] c"message digest\00", align 1
@.str.277 = private unnamed_addr constant [19 x i8] c"ALICE123@YAHOO.COM\00", align 1
@__const.test_EVP_SM2_verify.signature = private unnamed_addr constant [70 x i8] c"0D\02 [\DB\AB\81O\BB\8Bi\B1\05\9C\99;\B2E\06J0\15Y\84\CD\EE0`6W\87\EF\\\D0\BE\02 C\8D\1F\C7wr9\BBr\E1\FD\07X\D5\82\C8-\BA;,F$\E3P\FF\04\C7\A0q\9F\A4p", align 16
@.str.278 = private unnamed_addr constant [12 x i8] c"bio != NULL\00", align 1
@.str.279 = private unnamed_addr constant [13 x i8] c"pkey != NULL\00", align 1
@.str.280 = private unnamed_addr constant [27 x i8] c"EVP_PKEY_is_a(pkey, \22SM2\22)\00", align 1
@.str.281 = private unnamed_addr constant [24 x i8] c"mctx = EVP_MD_CTX_new()\00", align 1
@.str.282 = private unnamed_addr constant [60 x i8] c"pctx = EVP_PKEY_CTX_new_from_pkey(testctx, pkey, testpropq)\00", align 1
@.str.283 = private unnamed_addr constant [46 x i8] c"sm3 = EVP_MD_fetch(testctx, \22sm3\22, testpropq)\00", align 1
@.str.284 = private unnamed_addr constant [50 x i8] c"EVP_DigestVerifyInit(mctx, NULL, sm3, NULL, pkey)\00", align 1
@.str.285 = private unnamed_addr constant [43 x i8] c"EVP_PKEY_CTX_set1_id(pctx, id, strlen(id))\00", align 1
@.str.286 = private unnamed_addr constant [47 x i8] c"EVP_DigestVerifyUpdate(mctx, msg, strlen(msg))\00", align 1
@.str.287 = private unnamed_addr constant [58 x i8] c"EVP_DigestVerifyFinal(mctx, signature, sizeof(signature))\00", align 1

; Function Attrs: nounwind uwtable
define internal i32 @test_EVP_SM2_verify() #0 {
  %1 = alloca ptr, align 8
  %2 = alloca ptr, align 8
  %3 = alloca ptr, align 8
  %4 = alloca [70 x i8], align 16
  %5 = alloca i32, align 4
  %6 = alloca ptr, align 8
  %7 = alloca ptr, align 8
  %8 = alloca ptr, align 8
  %9 = alloca ptr, align 8
  %10 = alloca ptr, align 8
  call void @llvm.lifetime.start.p0(i64 8, ptr %1) #8
  store ptr @.str.275, ptr %1, align 8, !tbaa !4
  call void @llvm.lifetime.start.p0(i64 8, ptr %2) #8
  store ptr @.str.276, ptr %2, align 8, !tbaa !4
  call void @llvm.lifetime.start.p0(i64 8, ptr %3) #8
  store ptr @.str.277, ptr %3, align 8, !tbaa !4
  call void @llvm.lifetime.start.p0(i64 70, ptr %4) #8
  call void @llvm.memcpy.p0.p0.i64(ptr align 16 %4, ptr align 16 @__const.test_EVP_SM2_verify.signature, i64 70, i1 false)
  call void @llvm.lifetime.start.p0(i64 4, ptr %5) #8
  store i32 0, ptr %5, align 4, !tbaa !9
  call void @llvm.lifetime.start.p0(i64 8, ptr %6) #8
  store ptr null, ptr %6, align 8, !tbaa !27
  call void @llvm.lifetime.start.p0(i64 8, ptr %7) #8
  store ptr null, ptr %7, align 8, !tbaa !21
  call void @llvm.lifetime.start.p0(i64 8, ptr %8) #8
  store ptr null, ptr %8, align 8, !tbaa !25
  call void @llvm.lifetime.start.p0(i64 8, ptr %9) #8
  store ptr null, ptr %9, align 8, !tbaa !29
  call void @llvm.lifetime.start.p0(i64 8, ptr %10) #8
  store ptr null, ptr %10, align 8, !tbaa !19
  %11 = load ptr, ptr %1, align 8, !tbaa !4
  %12 = load ptr, ptr %1, align 8, !tbaa !4
  %13 = call i64 @strlen(ptr noundef %12) #9
  %14 = trunc i64 %13 to i32
  %15 = call ptr @BIO_new_mem_buf(ptr noundef %11, i32 noundef %14)
  store ptr %15, ptr %6, align 8, !tbaa !27
  %16 = load ptr, ptr %6, align 8, !tbaa !27
  %17 = icmp ne ptr %16, null
  %18 = zext i1 %17 to i32
  %19 = icmp ne i32 %18, 0
  %20 = zext i1 %19 to i32
  %21 = call i32 @test_true(ptr noundef @.str.18, i32 noundef 2331, ptr noundef @.str.278, i32 noundef %20)
  %22 = icmp ne i32 %21, 0
  br i1 %22, label %24, label %23

23:                                               ; preds = %0
  br label %106

24:                                               ; preds = %0
  %25 = load ptr, ptr %6, align 8, !tbaa !27
  %26 = load ptr, ptr @testctx, align 8, !tbaa !11
  %27 = load ptr, ptr @testpropq, align 8, !tbaa !4
  %28 = call ptr @PEM_read_bio_PUBKEY_ex(ptr noundef %25, ptr noundef null, ptr noundef null, ptr noundef null, ptr noundef %26, ptr noundef %27)
  store ptr %28, ptr %7, align 8, !tbaa !21
  %29 = load ptr, ptr %7, align 8, !tbaa !21
  %30 = icmp ne ptr %29, null
  %31 = zext i1 %30 to i32
  %32 = icmp ne i32 %31, 0
  %33 = zext i1 %32 to i32
  %34 = call i32 @test_true(ptr noundef @.str.18, i32 noundef 2335, ptr noundef @.str.279, i32 noundef %33)
  %35 = icmp ne i32 %34, 0
  br i1 %35, label %37, label %36

36:                                               ; preds = %24
  br label %106

37:                                               ; preds = %24
  %38 = load ptr, ptr %7, align 8, !tbaa !21
  %39 = call i32 @EVP_PKEY_is_a(ptr noundef %38, ptr noundef @.str.247)
  %40 = icmp ne i32 %39, 0
  %41 = zext i1 %40 to i32
  %42 = call i32 @test_true(ptr noundef @.str.18, i32 noundef 2338, ptr noundef @.str.280, i32 noundef %41)
  %43 = icmp ne i32 %42, 0
  br i1 %43, label %45, label %44

44:                                               ; preds = %37
  br label %106

45:                                               ; preds = %37
  %46 = call ptr @EVP_MD_CTX_new()
  store ptr %46, ptr %8, align 8, !tbaa !25
  %47 = call i32 @test_ptr(ptr noundef @.str.18, i32 noundef 2341, ptr noundef @.str.281, ptr noundef %46)
  %48 = icmp ne i32 %47, 0
  br i1 %48, label %50, label %49

49:                                               ; preds = %45
  br label %106

50:                                               ; preds = %45
  %51 = load ptr, ptr @testctx, align 8, !tbaa !11
  %52 = load ptr, ptr %7, align 8, !tbaa !21
  %53 = load ptr, ptr @testpropq, align 8, !tbaa !4
  %54 = call ptr @EVP_PKEY_CTX_new_from_pkey(ptr noundef %51, ptr noundef %52, ptr noundef %53)
  store ptr %54, ptr %9, align 8, !tbaa !29
  %55 = call i32 @test_ptr(ptr noundef @.str.18, i32 noundef 2344, ptr noundef @.str.282, ptr noundef %54)
  %56 = icmp ne i32 %55, 0
  br i1 %56, label %58, label %57

57:                                               ; preds = %50
  br label %106

58:                                               ; preds = %50
  %59 = load ptr, ptr %8, align 8, !tbaa !25
  %60 = load ptr, ptr %9, align 8, !tbaa !29
  call void @EVP_MD_CTX_set_pkey_ctx(ptr noundef %59, ptr noundef %60)
  %61 = load ptr, ptr @testctx, align 8, !tbaa !11
  %62 = load ptr, ptr @testpropq, align 8, !tbaa !4
  %63 = call ptr @EVP_MD_fetch(ptr noundef %61, ptr noundef @.str.256, ptr noundef %62)
  store ptr %63, ptr %10, align 8, !tbaa !19
  %64 = call i32 @test_ptr(ptr noundef @.str.18, i32 noundef 2349, ptr noundef @.str.283, ptr noundef %63)
  %65 = icmp ne i32 %64, 0
  br i1 %65, label %67, label %66

66:                                               ; preds = %58
  br label %106

67:                                               ; preds = %58
  %68 = load ptr, ptr %8, align 8, !tbaa !25
  %69 = load ptr, ptr %10, align 8, !tbaa !19
  %70 = load ptr, ptr %7, align 8, !tbaa !21
  %71 = call i32 @EVP_DigestVerifyInit(ptr noundef %68, ptr noundef null, ptr noundef %69, ptr noundef null, ptr noundef %70)
  %72 = icmp ne i32 %71, 0
  %73 = zext i1 %72 to i32
  %74 = call i32 @test_true(ptr noundef @.str.18, i32 noundef 2352, ptr noundef @.str.284, i32 noundef %73)
  %75 = icmp ne i32 %74, 0
  br i1 %75, label %77, label %76

76:                                               ; preds = %67
  br label %106

77:                                               ; preds = %67
  %78 = load ptr, ptr %9, align 8, !tbaa !29
  %79 = load ptr, ptr %3, align 8, !tbaa !4
  %80 = load ptr, ptr %3, align 8, !tbaa !4
  %81 = call i64 @strlen(ptr noundef %80) #9
  %82 = trunc i64 %81 to i32
  %83 = call i32 @EVP_PKEY_CTX_set1_id(ptr noundef %78, ptr noundef %79, i32 noundef %82)
  %84 = call i32 @test_int_gt(ptr noundef @.str.18, i32 noundef 2355, ptr noundef @.str.285, ptr noundef @.str.112, i32 noundef %83, i32 noundef 0)
  %85 = icmp ne i32 %84, 0
  br i1 %85, label %87, label %86

86:                                               ; preds = %77
  br label %106

87:                                               ; preds = %77
  %88 = load ptr, ptr %8, align 8, !tbaa !25
  %89 = load ptr, ptr %2, align 8, !tbaa !4
  %90 = load ptr, ptr %2, align 8, !tbaa !4
  %91 = call i64 @strlen(ptr noundef %90) #9
  %92 = call i32 @EVP_DigestVerifyUpdate(ptr noundef %88, ptr noundef %89, i64 noundef %91)
  %93 = icmp ne i32 %92, 0
  %94 = zext i1 %93 to i32
  %95 = call i32 @test_true(ptr noundef @.str.18, i32 noundef 2358, ptr noundef @.str.286, i32 noundef %94)
  %96 = icmp ne i32 %95, 0
  br i1 %96, label %98, label %97

97:                                               ; preds = %87
  br label %106

98:                                               ; preds = %87
  %99 = load ptr, ptr %8, align 8, !tbaa !25
  %100 = getelementptr inbounds [70 x i8], ptr %4, i64 0, i64 0
  %101 = call i32 @EVP_DigestVerifyFinal(ptr noundef %99, ptr noundef %100, i64 noundef 70)
  %102 = call i32 @test_int_gt(ptr noundef @.str.18, i32 noundef 2361, ptr noundef @.str.287, ptr noundef @.str.112, i32 noundef %101, i32 noundef 0)
  %103 = icmp ne i32 %102, 0
  br i1 %103, label %105, label %104

104:                                              ; preds = %98
  br label %106

105:                                              ; preds = %98
  store i32 1, ptr %5, align 4, !tbaa !9
  br label %106

106:                                              ; preds = %105, %104, %97, %86, %76, %66, %57, %49, %44, %36, %23
  %107 = load ptr, ptr %6, align 8, !tbaa !27
  %108 = call i32 @BIO_free(ptr noundef %107)
  %109 = load ptr, ptr %7, align 8, !tbaa !21
  call void @EVP_PKEY_free(ptr noundef %109)
  %110 = load ptr, ptr %9, align 8, !tbaa !29
  call void @EVP_PKEY_CTX_free(ptr noundef %110)
  %111 = load ptr, ptr %8, align 8, !tbaa !25
  call void @EVP_MD_CTX_free(ptr noundef %111)
  %112 = load ptr, ptr %10, align 8, !tbaa !19
  call void @EVP_MD_free(ptr noundef %112)
  %113 = load i32, ptr %5, align 4, !tbaa !9
  call void @llvm.lifetime.end.p0(i64 8, ptr %10) #8
  call void @llvm.lifetime.end.p0(i64 8, ptr %9) #8
  call void @llvm.lifetime.end.p0(i64 8, ptr %8) #8
  call void @llvm.lifetime.end.p0(i64 8, ptr %7) #8
  call void @llvm.lifetime.end.p0(i64 8, ptr %6) #8
  call void @llvm.lifetime.end.p0(i64 4, ptr %5) #8
  call void @llvm.lifetime.end.p0(i64 70, ptr %4) #8
  call void @llvm.lifetime.end.p0(i64 8, ptr %3) #8
  call void @llvm.lifetime.end.p0(i64 8, ptr %2) #8
  call void @llvm.lifetime.end.p0(i64 8, ptr %1) #8
  ret i32 %113
}