; Function Attrs: nounwind uwtable
define internal range(i32 0, 2) i32 @test_EVP_SM2_verify() #1 {
  %1 = alloca [70 x i8], align 16
  call void @llvm.lifetime.start.p0(i64 70, ptr nonnull %1) #9
  call void @llvm.memcpy.p0.p0.i64(ptr noundef nonnull align 16 dereferenceable(70) %1, ptr noundef nonnull align 16 dereferenceable(70) @__const.test_EVP_SM2_verify.signature, i64 70, i1 false)
  %2 = tail call ptr @BIO_new_mem_buf(ptr noundef nonnull @.str.275, i32 noundef 178) #9
  %3 = icmp ne ptr %2, null
  %4 = zext i1 %3 to i32
  %5 = tail call i32 @test_true(ptr noundef nonnull @.str.18, i32 noundef 2331, ptr noundef nonnull @.str.278, i32 noundef %4) #9
  %.not = icmp eq i32 %5, 0
  br i1 %.not, label %44, label %6

6:                                                ; preds = %0
  %7 = load ptr, ptr @testctx, align 8, !tbaa !6
  %8 = tail call ptr @PEM_read_bio_PUBKEY_ex(ptr noundef %2, ptr noundef null, ptr noundef null, ptr noundef null, ptr noundef %7, ptr noundef null) #9
  %9 = icmp ne ptr %8, null
  %10 = zext i1 %9 to i32
  %11 = tail call i32 @test_true(ptr noundef nonnull @.str.18, i32 noundef 2335, ptr noundef nonnull @.str.279, i32 noundef %10) #9
  %.not28 = icmp eq i32 %11, 0
  br i1 %.not28, label %44, label %12

12:                                               ; preds = %6
  %13 = tail call i32 @EVP_PKEY_is_a(ptr noundef %8, ptr noundef nonnull @.str.247) #9
  %14 = icmp ne i32 %13, 0
  %15 = zext i1 %14 to i32
  %16 = tail call i32 @test_true(ptr noundef nonnull @.str.18, i32 noundef 2338, ptr noundef nonnull @.str.280, i32 noundef %15) #9
  %.not29 = icmp eq i32 %16, 0
  br i1 %.not29, label %44, label %17

17:                                               ; preds = %12
  %18 = tail call ptr @EVP_MD_CTX_new() #9
  %19 = tail call i32 @test_ptr(ptr noundef nonnull @.str.18, i32 noundef 2341, ptr noundef nonnull @.str.281, ptr noundef %18) #9
  %.not30 = icmp eq i32 %19, 0
  br i1 %.not30, label %44, label %20

20:                                               ; preds = %17
  %21 = load ptr, ptr @testctx, align 8, !tbaa !6
  %22 = tail call ptr @EVP_PKEY_CTX_new_from_pkey(ptr noundef %21, ptr noundef %8, ptr noundef null) #9
  %23 = tail call i32 @test_ptr(ptr noundef nonnull @.str.18, i32 noundef 2344, ptr noundef nonnull @.str.282, ptr noundef %22) #9
  %.not31 = icmp eq i32 %23, 0
  br i1 %.not31, label %44, label %24

24:                                               ; preds = %20
  tail call void @EVP_MD_CTX_set_pkey_ctx(ptr noundef %18, ptr noundef %22) #9
  %25 = load ptr, ptr @testctx, align 8, !tbaa !6
  %26 = tail call ptr @EVP_MD_fetch(ptr noundef %25, ptr noundef nonnull @.str.256, ptr noundef null) #9
  %27 = tail call i32 @test_ptr(ptr noundef nonnull @.str.18, i32 noundef 2349, ptr noundef nonnull @.str.283, ptr noundef %26) #9
  %.not32 = icmp eq i32 %27, 0
  br i1 %.not32, label %44, label %28

28:                                               ; preds = %24
  %29 = tail call i32 @EVP_DigestVerifyInit(ptr noundef %18, ptr noundef null, ptr noundef %26, ptr noundef null, ptr noundef %8) #9
  %30 = icmp ne i32 %29, 0
  %31 = zext i1 %30 to i32
  %32 = tail call i32 @test_true(ptr noundef nonnull @.str.18, i32 noundef 2352, ptr noundef nonnull @.str.284, i32 noundef %31) #9
  %.not33 = icmp eq i32 %32, 0
  br i1 %.not33, label %44, label %33

33:                                               ; preds = %28
  %34 = tail call i32 @EVP_PKEY_CTX_set1_id(ptr noundef %22, ptr noundef nonnull @.str.277, i32 noundef 18) #9
  %35 = tail call i32 @test_int_gt(ptr noundef nonnull @.str.18, i32 noundef 2355, ptr noundef nonnull @.str.285, ptr noundef nonnull @.str.112, i32 noundef %34, i32 noundef 0) #9
  %.not34 = icmp eq i32 %35, 0
  br i1 %.not34, label %44, label %36

36:                                               ; preds = %33
  %37 = tail call i32 @EVP_DigestVerifyUpdate(ptr noundef %18, ptr noundef nonnull @.str.276, i64 noundef 14) #9
  %38 = icmp ne i32 %37, 0
  %39 = zext i1 %38 to i32
  %40 = tail call i32 @test_true(ptr noundef nonnull @.str.18, i32 noundef 2358, ptr noundef nonnull @.str.286, i32 noundef %39) #9
  %.not35 = icmp eq i32 %40, 0
  br i1 %.not35, label %44, label %41

41:                                               ; preds = %36
  %42 = call i32 @EVP_DigestVerifyFinal(ptr noundef %18, ptr noundef nonnull %1, i64 noundef 70) #9
  %43 = call i32 @test_int_gt(ptr noundef nonnull @.str.18, i32 noundef 2361, ptr noundef nonnull @.str.287, ptr noundef nonnull @.str.112, i32 noundef %42, i32 noundef 0) #9
  %.not36 = icmp ne i32 %43, 0
  %spec.select = zext i1 %.not36 to i32
  br label %44

44:                                               ; preds = %41, %36, %33, %28, %24, %20, %17, %12, %6, %0
  %.027 = phi i32 [ 0, %36 ], [ 0, %33 ], [ 0, %28 ], [ 0, %24 ], [ 0, %20 ], [ 0, %17 ], [ 0, %12 ], [ 0, %6 ], [ 0, %0 ], [ %spec.select, %41 ]
  %.026 = phi ptr [ %8, %36 ], [ %8, %33 ], [ %8, %28 ], [ %8, %24 ], [ %8, %20 ], [ %8, %17 ], [ %8, %12 ], [ %8, %6 ], [ null, %0 ], [ %8, %41 ]
  %.025 = phi ptr [ %18, %36 ], [ %18, %33 ], [ %18, %28 ], [ %18, %24 ], [ %18, %20 ], [ %18, %17 ], [ null, %12 ], [ null, %6 ], [ null, %0 ], [ %18, %41 ]
  %.024 = phi ptr [ %22, %36 ], [ %22, %33 ], [ %22, %28 ], [ %22, %24 ], [ %22, %20 ], [ null, %17 ], [ null, %12 ], [ null, %6 ], [ null, %0 ], [ %22, %41 ]
  %.0 = phi ptr [ %26, %36 ], [ %26, %33 ], [ %26, %28 ], [ %26, %24 ], [ null, %20 ], [ null, %17 ], [ null, %12 ], [ null, %6 ], [ null, %0 ], [ %26, %41 ]
  %45 = call i32 @BIO_free(ptr noundef %2) #9
  call void @EVP_PKEY_free(ptr noundef %.026) #9
  call void @EVP_PKEY_CTX_free(ptr noundef %.024) #9
  call void @EVP_MD_CTX_free(ptr noundef %.025) #9
  call void @EVP_MD_free(ptr noundef %.0) #9
  call void @llvm.lifetime.end.p0(i64 70, ptr nonnull %1) #9
  ret i32 %.027
}